target datalayout = "e-m:e-p270:32:32-p271:32:32-p272:64:64-i64:64-i128:128-f80:128-n8:16:32:64-S128"
target triple = "x86_64-pc-linux-gnu"

%struct._e_addr_resolve = type { i8, i8, i8, i8, i8, i8, i8, i8, i8 }
%struct.e_in6_addr = type { [16 x i8] }
%struct.hashipv6 = type { [16 x i8], i8, [46 x i8], [256 x i8] }
%struct._async_dns_queue_msg = type { %union.anon.4, i32 }
%union.anon.4 = type { i32, [12 x i8] }
%struct._sync_dns_data = type { %union.anon.5, i32, ptr }
%union.anon.5 = type { i32, [12 x i8] }

@gbl_resolv_flags = global %struct._e_addr_resolve { i8 1, i8 0, i8 0, i8 1, i8 0, i8 1, i8 0, i8 0, i8 1 }, align 1
@resolve_synchronously = internal global i8 0, align 1
@addr_resolv_scope = internal global ptr null, align 8
@ipv6_hash_table = internal global ptr null, align 8
@name_resolve_concurrency = internal global i32 500, align 4
@async_dns_initialized = internal global i8 0, align 1
@ghba_chan = internal global ptr null, align 8
@async_dns_queue_head = internal global ptr null, align 8

; Function Attrs: null_pointer_is_valid sspstrong uwtable
define internal void @sync_lookup_ip6(ptr noundef %0) #3 {
  %2 = alloca ptr, align 8
  %3 = alloca i8, align 1
  %4 = alloca ptr, align 8
  %5 = alloca i32, align 4
  %6 = alloca i64, align 8
  %7 = alloca i64, align 8
  %8 = alloca ptr, align 8
  %9 = alloca ptr, align 8
  store ptr %0, ptr %2, align 8
  call void @llvm.lifetime.start.p0(i64 1, ptr %3) #16
  store i8 0, ptr %3, align 1
  call void @llvm.lifetime.start.p0(i64 8, ptr %4) #16
  %10 = load i8, ptr @async_dns_initialized, align 1, !range !8, !noundef !9
  %11 = trunc i8 %10 to i1
  br i1 %11, label %13, label %12

12:                                               ; preds = %1
  store i32 1, ptr %5, align 4
  br label %54

13:                                               ; preds = %1
  call void @llvm.lifetime.start.p0(i64 8, ptr %6) #16
  store i64 1, ptr %6, align 8
  call void @llvm.lifetime.start.p0(i64 8, ptr %7) #16
  store i64 32, ptr %7, align 8
  call void @llvm.lifetime.start.p0(i64 8, ptr %8) #16
  %14 = load i64, ptr %7, align 8
  %15 = icmp eq i64 %14, 1
  br i1 %15, label %16, label %19

16:                                               ; preds = %13
  %17 = load i64, ptr %6, align 8
  %18 = call noalias ptr @g_malloc(i64 noundef %17) #21
  store ptr %18, ptr %8, align 8
  br label %40

19:                                               ; preds = %13
  %20 = load i64, ptr %6, align 8
  %21 = call i1 @llvm.is.constant.i64(i64 %20)
  br i1 %21, label %22, label %35

22:                                               ; preds = %19
  %23 = load i64, ptr %7, align 8
  %24 = icmp eq i64 %23, 0
  br i1 %24, label %30, label %25

25:                                               ; preds = %22
  %26 = load i64, ptr %6, align 8
  %27 = load i64, ptr %7, align 8
  %28 = udiv i64 -1, %27
  %29 = icmp ule i64 %26, %28
  br i1 %29, label %30, label %35

30:                                               ; preds = %25, %22
  %31 = load i64, ptr %6, align 8
  %32 = load i64, ptr %7, align 8
  %33 = mul i64 %31, %32
  %34 = call noalias ptr @g_malloc(i64 noundef %33) #21
  store ptr %34, ptr %8, align 8
  br label %39

35:                                               ; preds = %25, %19
  %36 = load i64, ptr %6, align 8
  %37 = load i64, ptr %7, align 8
  %38 = call noalias ptr @g_malloc_n(i64 noundef %36, i64 noundef %37) #22
  store ptr %38, ptr %8, align 8
  br label %39

39:                                               ; preds = %35, %30
  br label %40

40:                                               ; preds = %39, %16
  %41 = load ptr, ptr %8, align 8
  store ptr %41, ptr %9, align 8
  call void @llvm.lifetime.end.p0(i64 8, ptr %8) #16
  call void @llvm.lifetime.end.p0(i64 8, ptr %7) #16
  call void @llvm.lifetime.end.p0(i64 8, ptr %6) #16
  %42 = load ptr, ptr %9, align 8
  store ptr %42, ptr %4, align 8
  %43 = load ptr, ptr %4, align 8
  %44 = getelementptr inbounds nuw %struct._sync_dns_data, ptr %43, i32 0, i32 1
  store i32 10, ptr %44, align 8
  %45 = load ptr, ptr %4, align 8
  %46 = getelementptr inbounds nuw %struct._sync_dns_data, ptr %45, i32 0, i32 0
  %47 = load ptr, ptr %2, align 8
  %48 = call ptr @memcpy.inline(ptr noundef %46, ptr noundef %47, i64 noundef 16) #16
  %49 = load ptr, ptr %4, align 8
  %50 = getelementptr inbounds nuw %struct._sync_dns_data, ptr %49, i32 0, i32 2
  store ptr %3, ptr %50, align 8
  %51 = load ptr, ptr @ghba_chan, align 8
  %52 = load ptr, ptr %2, align 8
  %53 = load ptr, ptr %4, align 8
  call void @ares_gethostbyaddr(ptr noundef %51, ptr noundef %52, i32 noundef 16, i32 noundef 10, ptr noundef @c_ares_ghba_sync_cb, ptr noundef %53)
  call void @wait_for_sync_resolv(ptr noundef %3)
  store i32 0, ptr %5, align 4
  br label %54

54:                                               ; preds = %40, %12
  call void @llvm.lifetime.end.p0(i64 8, ptr %4) #16
  call void @llvm.lifetime.end.p0(i64 1, ptr %3) #16
  %55 = load i32, ptr %5, align 4
  switch i32 %55, label %57 [
    i32 0, label %56
    i32 1, label %56
  ]

56:                                               ; preds = %54, %54
  ret void

57:                                               ; preds = %54
  unreachable
}

; Function Attrs: null_pointer_is_valid sspstrong uwtable
define internal void @fill_dummy_ip6(ptr noundef %0) #3 {
  %2 = alloca ptr, align 8
  store volatile ptr %0, ptr %2, align 8
  %3 = load volatile ptr, ptr %2, align 8
  %4 = getelementptr inbounds nuw %struct.hashipv6, ptr %3, i32 0, i32 3
  %5 = getelementptr inbounds [256 x i8], ptr %4, i64 0, i64 0
  %6 = load volatile ptr, ptr %2, align 8
  %7 = getelementptr inbounds nuw %struct.hashipv6, ptr %6, i32 0, i32 2
  %8 = getelementptr inbounds [46 x i8], ptr %7, i64 0, i64 0
  %9 = call i64 @g_strlcpy(ptr noundef %5, ptr noundef %8, i64 noundef 256)
  ret void
}

; Function Attrs: alwaysinline nounwind
define internal ptr @memcpy.inline(ptr noalias %0, ptr noalias %1, i64 %2) #8 {
  %4 = alloca ptr, align 8
  %5 = alloca ptr, align 8
  %6 = alloca i64, align 8
  store ptr %0, ptr %4, align 8
  store ptr %1, ptr %5, align 8
  store i64 %2, ptr %6, align 8
  %7 = load ptr, ptr %4, align 8
  %8 = load ptr, ptr %5, align 8
  %9 = load i64, ptr %6, align 8
  %10 = load ptr, ptr %4, align 8
  %11 = call i64 @llvm.objectsize.i64.p0(ptr %10, i1 false, i1 true, i1 true)
  %12 = call ptr @__memcpy_chk(ptr noundef %7, ptr noundef %8, i64 noundef %9, i64 noundef %11) #16
  ret ptr %12
}

; Function Attrs: null_pointer_is_valid sspstrong uwtable
define internal ptr @new_ipv6(ptr noundef %0) #3 {
  %2 = alloca ptr, align 8
  %3 = alloca ptr, align 8
  store ptr %0, ptr %2, align 8
  call void @llvm.lifetime.start.p0(i64 8, ptr %3) #16
  %4 = load ptr, ptr @addr_resolv_scope, align 8
  %5 = call noalias ptr @wmem_alloc(ptr noundef %4, i64 noundef 319) #19
  store ptr %5, ptr %3, align 8
  %6 = load ptr, ptr %3, align 8
  %7 = getelementptr inbounds nuw %struct.hashipv6, ptr %6, i32 0, i32 0
  %8 = getelementptr inbounds [16 x i8], ptr %7, i64 0, i64 0
  %9 = load ptr, ptr %2, align 8
  %10 = getelementptr inbounds nuw %struct.e_in6_addr, ptr %9, i32 0, i32 0
  %11 = getelementptr inbounds [16 x i8], ptr %10, i64 0, i64 0
  %12 = call ptr @memcpy.inline(ptr noundef %8, ptr noundef %11, i64 noundef 16) #16
  %13 = load ptr, ptr %3, align 8
  %14 = getelementptr inbounds nuw %struct.hashipv6, ptr %13, i32 0, i32 1
  store i8 0, ptr %14, align 1
  %15 = load ptr, ptr %3, align 8
  %16 = getelementptr inbounds nuw %struct.hashipv6, ptr %15, i32 0, i32 3
  %17 = getelementptr [256 x i8], ptr %16, i64 0, i64 0
  store i8 0, ptr %17, align 1
  %18 = load ptr, ptr %2, align 8
  %19 = load ptr, ptr %3, align 8
  %20 = getelementptr inbounds nuw %struct.hashipv6, ptr %19, i32 0, i32 2
  %21 = getelementptr inbounds [46 x i8], ptr %20, i64 0, i64 0
  call void @ip6_to_str_buf(ptr noundef %18, ptr noundef %21, i64 noundef 46)
  %22 = load ptr, ptr %3, align 8
  call void @llvm.lifetime.end.p0(i64 8, ptr %3) #16
  ret ptr %22
}

; Function Attrs: null_pointer_is_valid sspstrong uwtable
define internal ptr @host_lookup6(ptr noundef %0) #3 {
  %2 = alloca ptr, align 8
  %3 = alloca ptr, align 8
  %4 = alloca ptr, align 8
  %5 = alloca ptr, align 8
  %6 = alloca i32, align 4
  %7 = alloca ptr, align 8
  store ptr %0, ptr %3, align 8
  call void @llvm.lifetime.start.p0(i64 8, ptr %4) #16
  %8 = load ptr, ptr @ipv6_hash_table, align 8
  %9 = load ptr, ptr %3, align 8
  %10 = call ptr @wmem_map_lookup(ptr noundef %8, ptr noundef %9)
  store volatile ptr %10, ptr %4, align 8
  %11 = load volatile ptr, ptr %4, align 8
  %12 = icmp eq ptr %11, null
  br i1 %12, label %13, label %26

13:                                               ; preds = %1
  call void @llvm.lifetime.start.p0(i64 8, ptr %5) #16
  %14 = load ptr, ptr @addr_resolv_scope, align 8
  %15 = call noalias ptr @wmem_alloc(ptr noundef %14, i64 noundef 16) #19
  store ptr %15, ptr %5, align 8
  %16 = load ptr, ptr %3, align 8
  %17 = call ptr @new_ipv6(ptr noundef %16)
  store volatile ptr %17, ptr %4, align 8
  %18 = load ptr, ptr %5, align 8
  %19 = load ptr, ptr %3, align 8
  %20 = call ptr @memcpy.inline(ptr noundef %18, ptr noundef %19, i64 noundef 16) #16
  %21 = load volatile ptr, ptr %4, align 8
  call void @fill_dummy_ip6(ptr noundef %21)
  %22 = load ptr, ptr @ipv6_hash_table, align 8
  %23 = load ptr, ptr %5, align 8
  %24 = load volatile ptr, ptr %4, align 8
  %25 = call ptr @wmem_map_insert(ptr noundef %22, ptr noundef %23, ptr noundef %24)
  call void @llvm.lifetime.end.p0(i64 8, ptr %5) #16
  br label %36

26:                                               ; preds = %1
  %27 = load volatile ptr, ptr %4, align 8
  %28 = getelementptr inbounds nuw %struct.hashipv6, ptr %27, i32 0, i32 1
  %29 = load i8, ptr %28, align 1
  %30 = zext i8 %29 to i32
  %31 = and i32 %30, 3
  %32 = icmp ne i32 %31, 0
  br i1 %32, label %33, label %35

33:                                               ; preds = %26
  %34 = load volatile ptr, ptr %4, align 8
  store ptr %34, ptr %2, align 8
  store i32 1, ptr %6, align 4
  br label %76

35:                                               ; preds = %26
  br label %36

36:                                               ; preds = %35, %13
  %37 = load i8, ptr getelementptr inbounds nuw (%struct._e_addr_resolve, ptr @gbl_resolv_flags, i32 0, i32 1), align 1, !range !8, !noundef !9
  %38 = trunc i8 %37 to i1
  br i1 %38, label %41, label %39

39:                                               ; preds = %36
  %40 = load volatile ptr, ptr %4, align 8
  store ptr %40, ptr %2, align 8
  store i32 1, ptr %6, align 4
  br label %76

41:                                               ; preds = %36
  %42 = load i8, ptr getelementptr inbounds nuw (%struct._e_addr_resolve, ptr @gbl_resolv_flags, i32 0, i32 5), align 1, !range !8, !noundef !9
  %43 = trunc i8 %42 to i1
  br i1 %43, label %44, label %74

44:                                               ; preds = %41
  %45 = load volatile ptr, ptr %4, align 8
  %46 = getelementptr inbounds nuw %struct.hashipv6, ptr %45, i32 0, i32 1
  %47 = load i8, ptr %46, align 1
  %48 = zext i8 %47 to i32
  %49 = or i32 %48, 1
  %50 = trunc i32 %49 to i8
  store i8 %50, ptr %46, align 1
  %51 = load i8, ptr @async_dns_initialized, align 1, !range !8, !noundef !9
  %52 = trunc i8 %51 to i1
  br i1 %52, label %53, label %73

53:                                               ; preds = %44
  %54 = load i8, ptr @resolve_synchronously, align 1, !range !8, !noundef !9
  %55 = trunc i8 %54 to i1
  br i1 %55, label %59, label %56

56:                                               ; preds = %53
  %57 = load i32, ptr @name_resolve_concurrency, align 4
  %58 = icmp eq i32 %57, 0
  br i1 %58, label %59, label %61

59:                                               ; preds = %56, %53
  %60 = load ptr, ptr %3, align 8
  call void @sync_lookup_ip6(ptr noundef %60)
  br label %72

61:                                               ; preds = %56
  call void @llvm.lifetime.start.p0(i64 8, ptr %7) #16
  %62 = load ptr, ptr @addr_resolv_scope, align 8
  %63 = call noalias ptr @wmem_alloc(ptr noundef %62, i64 noundef 20) #19
  store ptr %63, ptr %7, align 8
  %64 = load ptr, ptr %7, align 8
  %65 = getelementptr inbounds nuw %struct._async_dns_queue_msg, ptr %64, i32 0, i32 1
  store i32 10, ptr %65, align 4
  %66 = load ptr, ptr %7, align 8
  %67 = getelementptr inbounds nuw %struct._async_dns_queue_msg, ptr %66, i32 0, i32 0
  %68 = load ptr, ptr %3, align 8
  %69 = call ptr @memcpy.inline(ptr noundef %67, ptr noundef %68, i64 noundef 16) #16
  %70 = load ptr, ptr @async_dns_queue_head, align 8
  %71 = load ptr, ptr %7, align 8
  call void @wmem_list_append(ptr noundef %70, ptr noundef %71)
  call void @llvm.lifetime.end.p0(i64 8, ptr %7) #16
  br label %72

72:                                               ; preds = %61, %59
  br label %73

73:                                               ; preds = %72, %44
  br label %74

74:                                               ; preds = %73, %41
  %75 = load volatile ptr, ptr %4, align 8
  store ptr %75, ptr %2, align 8
  store i32 1, ptr %6, align 4
  br label %76

76:                                               ; preds = %74, %39, %33
  call void @llvm.lifetime.end.p0(i64 8, ptr %4) #16
  %77 = load ptr, ptr %2, align 8
  ret ptr %77
}