; Function Attrs: null_pointer_is_valid sspstrong uwtable
define internal fastcc ptr @host_lookup6(ptr noundef %0) unnamed_addr #3 {
  %2 = alloca i8, align 1
  %3 = alloca ptr, align 8
  %4 = alloca ptr, align 8
  call void @llvm.lifetime.start.p0(i64 8, ptr nonnull %4)
  %5 = load ptr, ptr @ipv6_hash_table, align 8
  %6 = tail call ptr @wmem_map_lookup(ptr noundef %5, ptr noundef %0)
  store volatile ptr %6, ptr %4, align 8
  %.0..0..0..0.6 = load volatile ptr, ptr %4, align 8
  %7 = icmp eq ptr %.0..0..0..0.6, null
  br i1 %7, label %8, label %21

8:                                                ; preds = %1
  %9 = load ptr, ptr @addr_resolv_scope, align 8
  %10 = tail call noalias dereferenceable_or_null(16) ptr @wmem_alloc(ptr noundef %9, i64 noundef 16) #26
  %11 = load ptr, ptr @addr_resolv_scope, align 8
  %12 = tail call noalias dereferenceable_or_null(319) ptr @wmem_alloc(ptr noundef %11, i64 noundef 319) #26
  tail call void @llvm.memcpy.p0.p0.i64(ptr noundef align 1 dereferenceable(16) %12, ptr noundef align 1 dereferenceable(16) %0, i64 noundef 16, i1 noundef false) #24
  %13 = getelementptr inbounds nuw i8, ptr %12, i64 16
  store i8 0, ptr %13, align 1
  %14 = getelementptr inbounds nuw i8, ptr %12, i64 63
  store i8 0, ptr %14, align 1
  %15 = getelementptr inbounds nuw i8, ptr %12, i64 17
  tail call void @ip6_to_str_buf(ptr noundef %0, ptr noundef nonnull %15, i64 noundef 46)
  store volatile ptr %12, ptr %4, align 8
  tail call void @llvm.memcpy.p0.p0.i64(ptr noundef align 1 dereferenceable(16) %10, ptr noundef align 1 dereferenceable(16) %0, i64 noundef 16, i1 noundef false) #24
  %.0..0..0..0.7 = load volatile ptr, ptr %4, align 8
  call void @llvm.lifetime.start.p0(i64 8, ptr nonnull %3)
  store volatile ptr %.0..0..0..0.7, ptr %3, align 8
  %.0..0..0..0..0..0..i = load volatile ptr, ptr %3, align 8
  %16 = getelementptr inbounds nuw i8, ptr %.0..0..0..0..0..0..i, i64 63
  %.0..0..0..0..0..0.1.i = load volatile ptr, ptr %3, align 8
  %17 = getelementptr inbounds nuw i8, ptr %.0..0..0..0..0..0.1.i, i64 17
  %18 = tail call i64 @g_strlcpy(ptr noundef nonnull %16, ptr noundef nonnull %17, i64 noundef 256)
  call void @llvm.lifetime.end.p0(i64 8, ptr nonnull %3)
  %19 = load ptr, ptr @ipv6_hash_table, align 8
  %.0..0..0..0.8 = load volatile ptr, ptr %4, align 8
  %20 = tail call ptr @wmem_map_insert(ptr noundef %19, ptr noundef %10, ptr noundef %.0..0..0..0.8)
  br label %25

21:                                               ; preds = %1
  %.0..0..0..0.9 = load volatile ptr, ptr %4, align 8
  %22 = getelementptr inbounds nuw i8, ptr %.0..0..0..0.9, i64 16
  %23 = load i8, ptr %22, align 1
  %24 = and i8 %23, 3
  %.not = icmp eq i8 %24, 0
  br i1 %.not, label %25, label %49

25:                                               ; preds = %21, %8
  %26 = load i8, ptr getelementptr inbounds nuw (i8, ptr @gbl_resolv_flags, i64 1), align 1, !range !16, !noundef !17
  %27 = trunc nuw i8 %26 to i1
  br i1 %27, label %28, label %49

28:                                               ; preds = %25
  %29 = load i8, ptr getelementptr inbounds nuw (i8, ptr @gbl_resolv_flags, i64 5), align 1, !range !16, !noundef !17
  %30 = trunc nuw i8 %29 to i1
  br i1 %30, label %31, label %49

31:                                               ; preds = %28
  %.0..0..0..0.12 = load volatile ptr, ptr %4, align 8
  %32 = getelementptr inbounds nuw i8, ptr %.0..0..0..0.12, i64 16
  %33 = load i8, ptr %32, align 1
  %34 = or i8 %33, 1
  store i8 %34, ptr %32, align 1
  %.b20 = load i1, ptr @async_dns_initialized, align 1
  br i1 %.b20, label %35, label %49

35:                                               ; preds = %31
  %36 = load i8, ptr @resolve_synchronously, align 1, !range !16, !noundef !17
  %37 = trunc nuw i8 %36 to i1
  %38 = load i32, ptr @name_resolve_concurrency, align 4
  %39 = icmp eq i32 %38, 0
  %or.cond = select i1 %37, i1 true, i1 %39
  br i1 %or.cond, label %sync_lookup_ip6.exit, label %44

sync_lookup_ip6.exit:                             ; preds = %35
  call void @llvm.lifetime.start.p0(i64 1, ptr nonnull %2) #24
  store i8 0, ptr %2, align 1
  %40 = tail call noalias dereferenceable_or_null(32) ptr @g_malloc(i64 noundef 32) #29
  %41 = getelementptr inbounds nuw i8, ptr %40, i64 16
  store i32 10, ptr %41, align 8
  tail call void @llvm.memcpy.p0.p0.i64(ptr noundef align 1 dereferenceable(16) %40, ptr noundef align 1 dereferenceable(16) %0, i64 noundef 16, i1 noundef false) #24
  %42 = getelementptr inbounds nuw i8, ptr %40, i64 24
  store ptr %2, ptr %42, align 8
  %43 = load ptr, ptr @ghba_chan, align 8
  call void @ares_gethostbyaddr(ptr noundef %43, ptr noundef %0, i32 noundef 16, i32 noundef 10, ptr noundef nonnull @c_ares_ghba_sync_cb, ptr noundef %40)
  call fastcc void @wait_for_sync_resolv(ptr noundef nonnull %2)
  call void @llvm.lifetime.end.p0(i64 1, ptr nonnull %2) #24
  br label %49

44:                                               ; preds = %35
  %45 = load ptr, ptr @addr_resolv_scope, align 8
  %46 = tail call noalias dereferenceable_or_null(20) ptr @wmem_alloc(ptr noundef %45, i64 noundef 20) #26
  %47 = getelementptr inbounds nuw i8, ptr %46, i64 16
  store i32 10, ptr %47, align 4
  tail call void @llvm.memcpy.p0.p0.i64(ptr noundef align 1 dereferenceable(16) %46, ptr noundef align 1 dereferenceable(16) %0, i64 noundef 16, i1 noundef false) #24
  %48 = load ptr, ptr @async_dns_queue_head, align 8
  tail call void @wmem_list_append(ptr noundef %48, ptr noundef %46)
  br label %49

49:                                               ; preds = %28, %sync_lookup_ip6.exit, %44, %31, %25, %21
  %.0..0..0..0 = load volatile ptr, ptr %4, align 8
  call void @llvm.lifetime.end.p0(i64 8, ptr nonnull %4)
  ret ptr %.0..0..0..0
}